target datalayout = "e-m:e-p270:32:32-p271:32:32-p272:64:64-i64:64-i128:128-f80:128-n8:16:32:64-S128"
target triple = "x86_64-pc-linux-gnu"

%"struct.std::_Rb_tree_key_compare" = type { %"struct.std::less" }
%"struct.std::less" = type { i8 }
%"struct.std::_Rb_tree_header" = type { %"struct.std::_Rb_tree_node_base", i64 }
%"struct.std::_Rb_tree_node_base" = type { i32, ptr, ptr, ptr }
%"struct.pkpy::Type" = type { i16 }
%"class.std::__shared_count" = type { ptr }
%"class.pkpy::VM" = type <{ ptr, ptr, %"struct.pkpy::ManagedHeap", %"struct.pkpy::ValueStack", %"struct.pkpy::CallStack", %"class.std::vector.3", %"struct.pkpy::NameDictImpl", %"class.std::map.8", %struct.anon, ptr, ptr, ptr, ptr, ptr, ptr, ptr, ptr, %"class.std::map.21", %"class.std::set", %"struct.pkpy::ImportContext", ptr, ptr, ptr, %"class.std::map.45", %"class.std::map.50", %"class.std::shared_ptr", ptr, ptr, ptr, ptr, i8, [7 x i8] }>
%"struct.pkpy::ManagedHeap" = type <{ %"class.std::vector", %"class.std::vector", ptr, ptr, ptr, i32, i32, i32, [4 x i8] }>
%"class.std::vector" = type { %"struct.std::_Vector_base" }
%"struct.std::_Vector_base" = type { %"struct.std::_Vector_base<pkpy::PyObject *, std::allocator<pkpy::PyObject *>>::_Vector_impl" }
%"struct.std::_Vector_base<pkpy::PyObject *, std::allocator<pkpy::PyObject *>>::_Vector_impl" = type { %"struct.std::_Vector_base<pkpy::PyObject *, std::allocator<pkpy::PyObject *>>::_Vector_impl_data" }
%"struct.std::_Vector_base<pkpy::PyObject *, std::allocator<pkpy::PyObject *>>::_Vector_impl_data" = type { ptr, ptr, ptr }
%"struct.pkpy::ValueStack" = type { [33024 x ptr], ptr, ptr }
%"struct.pkpy::CallStack" = type <{ ptr, i32, [4 x i8] }>
%"class.std::vector.3" = type { %"struct.std::_Vector_base.4" }
%"struct.std::_Vector_base.4" = type { %"struct.std::_Vector_base<pkpy::PyTypeInfo, std::allocator<pkpy::PyTypeInfo>>::_Vector_impl" }
%"struct.std::_Vector_base<pkpy::PyTypeInfo, std::allocator<pkpy::PyTypeInfo>>::_Vector_impl" = type { %"struct.std::_Vector_base<pkpy::PyTypeInfo, std::allocator<pkpy::PyTypeInfo>>::_Vector_impl_data" }
%"struct.std::_Vector_base<pkpy::PyTypeInfo, std::allocator<pkpy::PyTypeInfo>>::_Vector_impl_data" = type { ptr, ptr, ptr }
%"struct.pkpy::NameDictImpl" = type { %union.anon }
%union.anon = type { %"struct.pkpy::SmallNameDict" }
%"struct.pkpy::SmallNameDict" = type { i8, i16, [8 x %"struct.pkpy::StrName"], [8 x ptr] }
%"struct.pkpy::StrName" = type { i16 }
%"class.std::map.8" = type { %"class.std::_Rb_tree.9" }
%"class.std::_Rb_tree.9" = type { %"struct.std::_Rb_tree<pkpy::StrName, std::pair<const pkpy::StrName, pkpy::Str>, std::_Select1st<std::pair<const pkpy::StrName, pkpy::Str>>, std::less<pkpy::StrName>>::_Rb_tree_impl" }
%"struct.std::_Rb_tree<pkpy::StrName, std::pair<const pkpy::StrName, pkpy::Str>, std::_Select1st<std::pair<const pkpy::StrName, pkpy::Str>>, std::less<pkpy::StrName>>::_Rb_tree_impl" = type { %"struct.std::_Rb_tree_key_compare.13", %"struct.std::_Rb_tree_header" }
%"struct.std::_Rb_tree_key_compare.13" = type { %"struct.std::less.14" }
%"struct.std::less.14" = type { i8 }
%struct.anon = type { ptr, %"class.pkpy::stack_no_copy" }
%"class.pkpy::stack_no_copy" = type { %"class.pkpy::stack" }
%"class.pkpy::stack" = type { %"class.std::vector.16" }
%"class.std::vector.16" = type { %"struct.std::_Vector_base.17" }
%"struct.std::_Vector_base.17" = type { %"struct.std::_Vector_base<pkpy::ArgsView, std::allocator<pkpy::ArgsView>>::_Vector_impl" }
%"struct.std::_Vector_base<pkpy::ArgsView, std::allocator<pkpy::ArgsView>>::_Vector_impl" = type { %"struct.std::_Vector_base<pkpy::ArgsView, std::allocator<pkpy::ArgsView>>::_Vector_impl_data" }
%"struct.std::_Vector_base<pkpy::ArgsView, std::allocator<pkpy::ArgsView>>::_Vector_impl_data" = type { ptr, ptr, ptr }
%"class.std::map.21" = type { %"class.std::_Rb_tree.22" }
%"class.std::_Rb_tree.22" = type { %"struct.std::_Rb_tree<const std::type_index, std::pair<const std::type_index, pkpy::Type>, std::_Select1st<std::pair<const std::type_index, pkpy::Type>>, std::less<const std::type_index>>::_Rb_tree_impl" }
%"struct.std::_Rb_tree<const std::type_index, std::pair<const std::type_index, pkpy::Type>, std::_Select1st<std::pair<const std::type_index, pkpy::Type>>, std::less<const std::type_index>>::_Rb_tree_impl" = type { %"struct.std::_Rb_tree_key_compare.26", %"struct.std::_Rb_tree_header" }
%"struct.std::_Rb_tree_key_compare.26" = type { %"struct.std::less.27" }
%"struct.std::less.27" = type { i8 }
%"class.std::set" = type { %"class.std::_Rb_tree.29" }
%"class.std::_Rb_tree.29" = type { %"struct.std::_Rb_tree<pkpy::PyObject *, pkpy::PyObject *, std::_Identity<pkpy::PyObject *>, std::less<pkpy::PyObject *>>::_Rb_tree_impl" }
%"struct.std::_Rb_tree<pkpy::PyObject *, pkpy::PyObject *, std::_Identity<pkpy::PyObject *>, std::less<pkpy::PyObject *>>::_Rb_tree_impl" = type { %"struct.std::_Rb_tree_key_compare.33", %"struct.std::_Rb_tree_header" }
%"struct.std::_Rb_tree_key_compare.33" = type { %"struct.std::less.34" }
%"struct.std::less.34" = type { i8 }
%"struct.pkpy::ImportContext" = type { %"class.std::vector.36", %"class.std::vector.41" }
%"class.std::vector.36" = type { %"struct.std::_Vector_base.37" }
%"struct.std::_Vector_base.37" = type { %"struct.std::_Vector_base<pkpy::Str, std::allocator<pkpy::Str>>::_Vector_impl" }
%"struct.std::_Vector_base<pkpy::Str, std::allocator<pkpy::Str>>::_Vector_impl" = type { %"struct.std::_Vector_base<pkpy::Str, std::allocator<pkpy::Str>>::_Vector_impl_data" }
%"struct.std::_Vector_base<pkpy::Str, std::allocator<pkpy::Str>>::_Vector_impl_data" = type { ptr, ptr, ptr }
%"class.std::vector.41" = type { %"struct.std::_Bvector_base" }
%"struct.std::_Bvector_base" = type { %"struct.std::_Bvector_base<std::allocator<bool>>::_Bvector_impl" }
%"struct.std::_Bvector_base<std::allocator<bool>>::_Bvector_impl" = type { %"struct.std::_Bvector_base<std::allocator<bool>>::_Bvector_impl_data" }
%"struct.std::_Bvector_base<std::allocator<bool>>::_Bvector_impl_data" = type { %"struct.std::_Bit_iterator", %"struct.std::_Bit_iterator", ptr }
%"struct.std::_Bit_iterator" = type { %"struct.std::_Bit_iterator_base.base", [4 x i8] }
%"struct.std::_Bit_iterator_base.base" = type <{ ptr, i32 }>
%"class.std::map.45" = type { %"class.std::_Rb_tree.46" }
%"class.std::_Rb_tree.46" = type { %"struct.std::_Rb_tree<std::basic_string_view<char>, std::pair<const std::basic_string_view<char>, std::shared_ptr<pkpy::CodeObject>>, std::_Select1st<std::pair<const std::basic_string_view<char>, std::shared_ptr<pkpy::CodeObject>>>, std::less<std::basic_string_view<char>>>::_Rb_tree_impl" }
%"struct.std::_Rb_tree<std::basic_string_view<char>, std::pair<const std::basic_string_view<char>, std::shared_ptr<pkpy::CodeObject>>, std::_Select1st<std::pair<const std::basic_string_view<char>, std::shared_ptr<pkpy::CodeObject>>>, std::less<std::basic_string_view<char>>>::_Rb_tree_impl" = type { %"struct.std::_Rb_tree_key_compare", %"struct.std::_Rb_tree_header" }
%"class.std::map.50" = type { %"class.std::_Rb_tree.51" }
%"class.std::_Rb_tree.51" = type { %"struct.std::_Rb_tree<std::basic_string_view<char>, std::pair<const std::basic_string_view<char>, pkpy::PyObject *>, std::_Select1st<std::pair<const std::basic_string_view<char>, pkpy::PyObject *>>, std::less<std::basic_string_view<char>>>::_Rb_tree_impl" }
%"struct.std::_Rb_tree<std::basic_string_view<char>, std::pair<const std::basic_string_view<char>, pkpy::PyObject *>, std::_Select1st<std::pair<const std::basic_string_view<char>, pkpy::PyObject *>>, std::less<std::basic_string_view<char>>>::_Rb_tree_impl" = type { %"struct.std::_Rb_tree_key_compare", %"struct.std::_Rb_tree_header" }
%"class.std::shared_ptr" = type { %"class.std::__shared_ptr" }
%"class.std::__shared_ptr" = type { ptr, %"class.std::__shared_count" }
%"struct.pkpy::PyTypeInfo" = type { ptr, %"struct.pkpy::Type", ptr, %"struct.pkpy::StrName", i8, %"class.std::vector.72", ptr, ptr, ptr, ptr, ptr, ptr, ptr, ptr, ptr, ptr, ptr, ptr, ptr, ptr, ptr, ptr, ptr, ptr, ptr, ptr, ptr, ptr, ptr, ptr, ptr, ptr, ptr, ptr, ptr, ptr, ptr, ptr, ptr, ptr }
%"class.std::vector.72" = type { %"struct.std::_Vector_base.73" }
%"struct.std::_Vector_base.73" = type { %"struct.std::_Vector_base<pkpy::StrName, std::allocator<pkpy::StrName>>::_Vector_impl" }
%"struct.std::_Vector_base<pkpy::StrName, std::allocator<pkpy::StrName>>::_Vector_impl" = type { %"struct.std::_Vector_base<pkpy::StrName, std::allocator<pkpy::StrName>>::_Vector_impl_data" }
%"struct.std::_Vector_base<pkpy::StrName, std::allocator<pkpy::StrName>>::_Vector_impl_data" = type { ptr, ptr, ptr }
%"struct.pkpy::PyObject" = type { ptr, i8, i8, %"struct.pkpy::Type", ptr }

@_ZTIN4pkpy9ExceptionE = linkonce_odr constant { ptr, ptr } { ptr getelementptr inbounds (ptr, ptr @_ZTVN10__cxxabiv117__class_type_infoE, i64 2), ptr @_ZTSN4pkpy9ExceptionE }, comdat, align 8
@_ZTISt9exception = external constant ptr
@_ZN4pkpy2VM12tp_exceptionE = linkonce_odr constant %"struct.pkpy::Type" { i16 15 }, comdat, align 2
@_ZN4pkpy2VM6tp_intE = linkonce_odr constant %"struct.pkpy::Type" { i16 2 }, comdat, align 2

; Function Attrs: mustprogress nounwind uwtable
define linkonce_odr noundef zeroext i1 @_ZN4pkpy12is_small_intEPNS_8PyObjectE(ptr noundef %0) #5 comdat {
  %2 = alloca ptr, align 8
  store ptr %0, ptr %2, align 8
  %3 = load ptr, ptr %2, align 8
  %4 = ptrtoint ptr %3 to i64
  %5 = and i64 %4, 3
  %6 = icmp eq i64 %5, 2
  ret i1 %6
}

; Function Attrs: mustprogress nounwind uwtable
define linkonce_odr noundef nonnull align 8 dereferenceable(328) ptr @_ZNSt6vectorIN4pkpy10PyTypeInfoESaIS1_EEixEm(ptr noundef nonnull align 8 dereferenceable(24) %0, i64 noundef %1) #5 comdat align 2 {
  %3 = alloca ptr, align 8
  %4 = alloca i64, align 8
  store ptr %0, ptr %3, align 8
  store i64 %1, ptr %4, align 8
  %5 = load ptr, ptr %3, align 8
  %6 = getelementptr inbounds %"struct.std::_Vector_base.4", ptr %5, i32 0, i32 0
  %7 = getelementptr inbounds %"struct.std::_Vector_base<pkpy::PyTypeInfo, std::allocator<pkpy::PyTypeInfo>>::_Vector_impl_data", ptr %6, i32 0, i32 0
  %8 = load ptr, ptr %7, align 8
  %9 = load i64, ptr %4, align 8
  %10 = getelementptr inbounds %"struct.pkpy::PyTypeInfo", ptr %8, i64 %9
  ret ptr %10
}

; Function Attrs: mustprogress nounwind uwtable
define linkonce_odr noundef i32 @_ZNK4pkpy4TypecviEv(ptr noundef nonnull align 2 dereferenceable(2) %0) #5 comdat align 2 {
  %2 = alloca ptr, align 8
  store ptr %0, ptr %2, align 8
  %3 = load ptr, ptr %2, align 8
  %4 = getelementptr inbounds %"struct.pkpy::Type", ptr %3, i32 0, i32 0
  %5 = load i16, ptr %4, align 2
  %6 = sext i16 %5 to i32
  ret i32 %6
}

; Function Attrs: mustprogress nounwind uwtable
define linkonce_odr noundef zeroext i1 @_ZNK4pkpy4TypeeqES0_(ptr noundef nonnull align 2 dereferenceable(2) %0, i16 %1) #5 comdat align 2 {
  %3 = alloca %"struct.pkpy::Type", align 2
  %4 = alloca ptr, align 8
  %5 = getelementptr inbounds %"struct.pkpy::Type", ptr %3, i32 0, i32 0
  store i16 %1, ptr %5, align 2
  store ptr %0, ptr %4, align 8
  %6 = load ptr, ptr %4, align 8
  %7 = getelementptr inbounds %"struct.pkpy::Type", ptr %6, i32 0, i32 0
  %8 = load i16, ptr %7, align 2
  %9 = sext i16 %8 to i32
  %10 = getelementptr inbounds %"struct.pkpy::Type", ptr %3, i32 0, i32 0
  %11 = load i16, ptr %10, align 2
  %12 = sext i16 %11 to i32
  %13 = icmp eq i32 %9, %12
  ret i1 %13
}

; Function Attrs: mustprogress uwtable
define linkonce_odr i16 @_ZN4pkpy2VM8_tp_userINS_5VoidPEEENS_4TypeEv(ptr noundef nonnull align 8 dereferenceable(264913) %0) #4 comdat align 2 {
  %2 = alloca %"struct.pkpy::Type", align 2
  %3 = alloca ptr, align 8
  store ptr %0, ptr %3, align 8
  %4 = load ptr, ptr %3, align 8
  %5 = call i16 @_ZN4pkpy2VM28_find_type_in_cxx_typeid_mapINS_5VoidPEEENS_4TypeEv(ptr noundef nonnull align 8 dereferenceable(264913) %4)
  %6 = getelementptr inbounds %"struct.pkpy::Type", ptr %2, i32 0, i32 0
  store i16 %5, ptr %6, align 2
  %7 = getelementptr inbounds %"struct.pkpy::Type", ptr %2, i32 0, i32 0
  %8 = load i16, ptr %7, align 2
  ret i16 %8
}

; Function Attrs: mustprogress nounwind uwtable
define linkonce_odr i16 @_ZN4pkpy2VM3_tpEPNS_8PyObjectE(ptr noundef nonnull align 8 dereferenceable(264913) %0, ptr noundef %1) #5 comdat align 2 {
  %3 = alloca %"struct.pkpy::Type", align 2
  %4 = alloca ptr, align 8
  %5 = alloca ptr, align 8
  store ptr %0, ptr %4, align 8
  store ptr %1, ptr %5, align 8
  %6 = load ptr, ptr %5, align 8
  %7 = call noundef zeroext i1 @_ZN4pkpy12is_small_intEPNS_8PyObjectE(ptr noundef %6) #3
  br i1 %7, label %8, label %9

8:                                                ; preds = %2
  br label %12

9:                                                ; preds = %2
  %10 = load ptr, ptr %5, align 8
  %11 = getelementptr inbounds %"struct.pkpy::PyObject", ptr %10, i32 0, i32 3
  br label %12

12:                                               ; preds = %9, %8
  %13 = phi ptr [ @_ZN4pkpy2VM6tp_intE, %8 ], [ %11, %9 ]
  call void @llvm.memcpy.p0.p0.i64(ptr align 2 %3, ptr align 2 %13, i64 2, i1 false)
  %14 = getelementptr inbounds %"struct.pkpy::Type", ptr %3, i32 0, i32 0
  %15 = load i16, ptr %14, align 2
  ret i16 %15
}

; Function Attrs: mustprogress uwtable
define linkonce_odr noundef ptr @_ZN4pkpy2VM2_tENS_4TypeE(ptr noundef nonnull align 8 dereferenceable(264913) %0, i16 %1) #4 comdat align 2 {
  %3 = alloca %"struct.pkpy::Type", align 2
  %4 = alloca ptr, align 8
  %5 = getelementptr inbounds %"struct.pkpy::Type", ptr %3, i32 0, i32 0
  store i16 %1, ptr %5, align 2
  store ptr %0, ptr %4, align 8
  %6 = load ptr, ptr %4, align 8
  %7 = getelementptr inbounds %"class.pkpy::VM", ptr %6, i32 0, i32 5
  %8 = call noundef i32 @_ZNK4pkpy4TypecviEv(ptr noundef nonnull align 2 dereferenceable(2) %3)
  %9 = sext i32 %8 to i64
  %10 = call noundef nonnull align 8 dereferenceable(328) ptr @_ZNSt6vectorIN4pkpy10PyTypeInfoESaIS1_EEixEm(ptr noundef nonnull align 8 dereferenceable(24) %7, i64 noundef %9) #3
  %11 = getelementptr inbounds %"struct.pkpy::PyTypeInfo", ptr %10, i32 0, i32 0
  %12 = load ptr, ptr %11, align 8
  ret ptr %12
}

; Function Attrs: mustprogress uwtable
define linkonce_odr noundef zeroext i1 @_ZN4pkpy2VM12is_user_typeINS_5VoidPEEEbPNS_8PyObjectE(ptr noundef nonnull align 8 dereferenceable(264913) %0, ptr noundef %1) #4 comdat align 2 {
  %3 = alloca ptr, align 8
  %4 = alloca ptr, align 8
  %5 = alloca %"struct.pkpy::Type", align 2
  %6 = alloca %"struct.pkpy::Type", align 2
  store ptr %0, ptr %3, align 8
  store ptr %1, ptr %4, align 8
  %7 = load ptr, ptr %3, align 8
  %8 = load ptr, ptr %4, align 8
  %9 = call i16 @_ZN4pkpy2VM3_tpEPNS_8PyObjectE(ptr noundef nonnull align 8 dereferenceable(264913) %7, ptr noundef %8)
  %10 = getelementptr inbounds %"struct.pkpy::Type", ptr %5, i32 0, i32 0
  store i16 %9, ptr %10, align 2
  %11 = call i16 @_ZN4pkpy2VM8_tp_userINS_5VoidPEEENS_4TypeEv(ptr noundef nonnull align 8 dereferenceable(264913) %7)
  %12 = getelementptr inbounds %"struct.pkpy::Type", ptr %6, i32 0, i32 0
  store i16 %11, ptr %12, align 2
  %13 = getelementptr inbounds %"struct.pkpy::Type", ptr %6, i32 0, i32 0
  %14 = load i16, ptr %13, align 2
  %15 = call noundef zeroext i1 @_ZNK4pkpy4TypeeqES0_(ptr noundef nonnull align 2 dereferenceable(2) %5, i16 %14)
  ret i1 %15
}

; Function Attrs: mustprogress uwtable
define zeroext i1 @pkpy_is_voidp(ptr noundef %0, i32 noundef %1) #4 personality ptr @__gxx_personality_v0 {
  %3 = alloca i1, align 1
  %4 = alloca ptr, align 8
  %5 = alloca i32, align 4
  %6 = alloca ptr, align 8
  %7 = alloca ptr, align 8
  %8 = alloca ptr, align 8
  %9 = alloca i32, align 4
  %10 = alloca ptr, align 8
  %11 = alloca ptr, align 8
  %12 = alloca %"struct.pkpy::Type", align 2
  %13 = alloca ptr, align 8
  %14 = alloca ptr, align 8
  %15 = alloca ptr, align 8
  store ptr %0, ptr %4, align 8
  store i32 %1, ptr %5, align 4
  %16 = load ptr, ptr %4, align 8
  store ptr %16, ptr %6, align 8
  %17 = load ptr, ptr %6, align 8
  %18 = getelementptr inbounds %"class.pkpy::VM", ptr %17, i32 0, i32 8
  %19 = getelementptr inbounds %struct.anon, ptr %18, i32 0, i32 0
  %20 = load ptr, ptr %19, align 8
  %21 = icmp ne ptr %20, null
  br i1 %21, label %22, label %23

22:                                               ; preds = %2
  store i1 false, ptr %3, align 1
  br label %86

23:                                               ; preds = %2
  %24 = load ptr, ptr %6, align 8
  %25 = load i32, ptr %5, align 4
  %26 = invoke noundef ptr @_ZL10stack_itemPN4pkpy2VMEi(ptr noundef %24, i32 noundef %25)
          to label %27 unwind label %32

27:                                               ; preds = %23
  store ptr %26, ptr %7, align 8
  %28 = load ptr, ptr %6, align 8
  %29 = load ptr, ptr %7, align 8
  %30 = invoke noundef zeroext i1 @_ZN4pkpy2VM12is_user_typeINS_5VoidPEEEbPNS_8PyObjectE(ptr noundef nonnull align 8 dereferenceable(264913) %28, ptr noundef %29)
          to label %31 unwind label %32

31:                                               ; preds = %27
  store i1 %30, ptr %3, align 1
  br label %86

32:                                               ; preds = %27, %23
  %33 = landingpad { ptr, i32 }
          catch ptr @_ZTIN4pkpy9ExceptionE
          catch ptr @_ZTISt9exception
  %34 = extractvalue { ptr, i32 } %33, 0
  store ptr %34, ptr %8, align 8
  %35 = extractvalue { ptr, i32 } %33, 1
  store i32 %35, ptr %9, align 4
  br label %36

36:                                               ; preds = %32
  %37 = load i32, ptr %9, align 4
  %38 = call i32 @llvm.eh.typeid.for.p0(ptr @_ZTIN4pkpy9ExceptionE) #3
  %39 = icmp eq i32 %37, %38
  br i1 %39, label %40, label %49

40:                                               ; preds = %36
  %41 = load ptr, ptr %8, align 8
  %42 = call ptr @__cxa_begin_catch(ptr %41) #3
  store ptr %42, ptr %15, align 8
  %43 = load ptr, ptr %15, align 8
  %44 = invoke noundef ptr @_ZNK4pkpy9Exception4selfEv(ptr noundef nonnull align 8 dereferenceable(88) %43)
          to label %45 unwind label %80

45:                                               ; preds = %40
  %46 = load ptr, ptr %6, align 8
  %47 = getelementptr inbounds %"class.pkpy::VM", ptr %46, i32 0, i32 8
  %48 = getelementptr inbounds %struct.anon, ptr %47, i32 0, i32 0
  store ptr %44, ptr %48, align 8
  store i1 false, ptr %3, align 1
  call void @__cxa_end_catch()
  br label %86

49:                                               ; preds = %36
  %50 = call i32 @llvm.eh.typeid.for.p0(ptr @_ZTISt9exception) #3
  %51 = icmp eq i32 %37, %50
  br i1 %51, label %52, label %88

52:                                               ; preds = %49
  %53 = load ptr, ptr %8, align 8
  %54 = call ptr @__cxa_begin_catch(ptr %53) #3
  store ptr %54, ptr %10, align 8
  %55 = load ptr, ptr %6, align 8
  call void @llvm.memcpy.p0.p0.i64(ptr align 2 %12, ptr align 2 @_ZN4pkpy2VM12tp_exceptionE, i64 2, i1 false)
  %56 = getelementptr inbounds %"struct.pkpy::Type", ptr %12, i32 0, i32 0
  %57 = load i16, ptr %56, align 2
  %58 = invoke noundef ptr @_ZN4pkpy2VM2_tENS_4TypeE(ptr noundef nonnull align 8 dereferenceable(264913) %55, i16 %57)
          to label %59 unwind label %75

59:                                               ; preds = %52
  store ptr %58, ptr %11, align 8
  %60 = load ptr, ptr %6, align 8
  %61 = load ptr, ptr %11, align 8
  %62 = load ptr, ptr %6, align 8
  %63 = load ptr, ptr %10, align 8
  %64 = load ptr, ptr %63, align 8
  %65 = getelementptr inbounds ptr, ptr %64, i64 2
  %66 = load ptr, ptr %65, align 8
  %67 = call noundef ptr %66(ptr noundef nonnull align 8 dereferenceable(8) %63) #3
  store ptr %67, ptr %14, align 8
  %68 = invoke noundef ptr @_ZN4pkpy6py_varIPKcEEPNS_8PyObjectEPNS_2VMEOT_(ptr noundef %62, ptr noundef nonnull align 8 dereferenceable(8) %14)
          to label %69 unwind label %75

69:                                               ; preds = %59
  store ptr %68, ptr %13, align 8
  %70 = invoke noundef ptr @_ZN4pkpy2VM4callIJPNS_8PyObjectEEEES3_S3_DpOT_(ptr noundef nonnull align 8 dereferenceable(264913) %60, ptr noundef %61, ptr noundef nonnull align 8 dereferenceable(8) %13)
          to label %71 unwind label %75

71:                                               ; preds = %69
  %72 = load ptr, ptr %6, align 8
  %73 = getelementptr inbounds %"class.pkpy::VM", ptr %72, i32 0, i32 8
  %74 = getelementptr inbounds %struct.anon, ptr %73, i32 0, i32 0
  store ptr %70, ptr %74, align 8
  store i1 false, ptr %3, align 1
  call void @__cxa_end_catch()
  br label %86

75:                                               ; preds = %69, %59, %52
  %76 = landingpad { ptr, i32 }
          cleanup
  %77 = extractvalue { ptr, i32 } %76, 0
  store ptr %77, ptr %8, align 8
  %78 = extractvalue { ptr, i32 } %76, 1
  store i32 %78, ptr %9, align 4
  invoke void @__cxa_end_catch()
          to label %79 unwind label %93

79:                                               ; preds = %75
  br label %88

80:                                               ; preds = %40
  %81 = landingpad { ptr, i32 }
          cleanup
  %82 = extractvalue { ptr, i32 } %81, 0
  store ptr %82, ptr %8, align 8
  %83 = extractvalue { ptr, i32 } %81, 1
  store i32 %83, ptr %9, align 4
  invoke void @__cxa_end_catch()
          to label %84 unwind label %93

84:                                               ; preds = %80
  br label %88

85:                                               ; No predecessors!
  call void @llvm.trap()
  unreachable

86:                                               ; preds = %71, %45, %31, %22
  %87 = load i1, ptr %3, align 1
  ret i1 %87

88:                                               ; preds = %84, %79, %49
  %89 = load ptr, ptr %8, align 8
  %90 = load i32, ptr %9, align 4
  %91 = insertvalue { ptr, i32 } poison, ptr %89, 0
  %92 = insertvalue { ptr, i32 } %91, i32 %90, 1
  resume { ptr, i32 } %92

93:                                               ; preds = %80, %75
  %94 = landingpad { ptr, i32 }
          catch ptr null
  %95 = extractvalue { ptr, i32 } %94, 0
  call void @__clang_call_terminate(ptr %95) #19
  unreachable
}