; Function Attrs: mustprogress uwtable
define zeroext i1 @pkpy_is_voidp(ptr noundef %0, i32 noundef %1) local_unnamed_addr #4 personality ptr @__gxx_personality_v0 {
  %3 = alloca ptr, align 8
  %4 = alloca ptr, align 8
  %5 = getelementptr inbounds nuw i8, ptr %0, i64 264488
  %6 = load ptr, ptr %5, align 8
  %.not = icmp eq ptr %6, null
  br i1 %.not, label %7, label %48

7:                                                ; preds = %2
  %8 = invoke fastcc noundef ptr @_ZL10stack_itemPN4pkpy2VMEi(ptr noundef nonnull %0, i32 noundef %1)
          to label %9 unwind label %17

9:                                                ; preds = %7
  %10 = ptrtoint ptr %8 to i64
  %11 = and i64 %10, 3
  %12 = icmp eq i64 %11, 2
  %13 = getelementptr inbounds nuw i8, ptr %8, i64 10
  %14 = select i1 %12, ptr @_ZN4pkpy2VM6tp_intE, ptr %13
  %.sroa.0.0.copyload.i.i = load i16, ptr %14, align 2
  %15 = invoke i16 @_ZN4pkpy2VM28_find_type_in_cxx_typeid_mapINS_5VoidPEEENS_4TypeEv(ptr noundef nonnull align 8 dereferenceable(264913) %0)
          to label %_ZN4pkpy2VM12is_user_typeINS_5VoidPEEEbPNS_8PyObjectE.exit unwind label %17

_ZN4pkpy2VM12is_user_typeINS_5VoidPEEEbPNS_8PyObjectE.exit: ; preds = %9
  %16 = icmp eq i16 %.sroa.0.0.copyload.i.i, %15
  br label %48

17:                                               ; preds = %9, %7
  %18 = landingpad { ptr, i32 }
          catch ptr @_ZTIN4pkpy9ExceptionE
          catch ptr @_ZTISt9exception
  %19 = extractvalue { ptr, i32 } %18, 0
  %20 = extractvalue { ptr, i32 } %18, 1
  %21 = tail call i32 @llvm.eh.typeid.for.p0(ptr nonnull @_ZTIN4pkpy9ExceptionE) #32
  %22 = icmp eq i32 %20, %21
  br i1 %22, label %23, label %27

23:                                               ; preds = %17
  %24 = tail call ptr @__cxa_begin_catch(ptr %19) #32
  %25 = invoke noundef ptr @_ZNK4pkpy9Exception4selfEv(ptr noundef nonnull align 8 dereferenceable(88) %24)
          to label %26 unwind label %46

26:                                               ; preds = %23
  store ptr %25, ptr %5, align 8
  tail call void @__cxa_end_catch()
  br label %48

27:                                               ; preds = %17
  %28 = tail call i32 @llvm.eh.typeid.for.p0(ptr nonnull @_ZTISt9exception) #32
  %29 = icmp eq i32 %20, %28
  br i1 %29, label %30, label %49

30:                                               ; preds = %27
  %31 = tail call ptr @__cxa_begin_catch(ptr %19) #32
  %32 = getelementptr inbounds nuw i8, ptr %0, i64 264328
  %33 = load ptr, ptr %32, align 8
  %34 = getelementptr inbounds nuw i8, ptr %33, i64 4920
  %35 = load ptr, ptr %34, align 8
  %36 = load ptr, ptr %31, align 8
  %37 = getelementptr inbounds nuw i8, ptr %36, i64 16
  %38 = load ptr, ptr %37, align 8
  %39 = tail call noundef ptr %38(ptr noundef nonnull align 8 dereferenceable(8) %31) #32
  store ptr %39, ptr %4, align 8
  %40 = invoke noundef ptr @_ZN4pkpy6py_varIPKcEEPNS_8PyObjectEPNS_2VMEOT_(ptr noundef nonnull %0, ptr noundef nonnull align 8 dereferenceable(8) %4)
          to label %41 unwind label %44

41:                                               ; preds = %30
  store ptr %40, ptr %3, align 8
  %42 = invoke noundef ptr @_ZN4pkpy2VM4callIJPNS_8PyObjectEEEES3_S3_DpOT_(ptr noundef nonnull align 8 dereferenceable(264913) %0, ptr noundef %35, ptr noundef nonnull align 8 dereferenceable(8) %3)
          to label %43 unwind label %44

43:                                               ; preds = %41
  store ptr %42, ptr %5, align 8
  call void @__cxa_end_catch()
  br label %48

44:                                               ; preds = %41, %30
  %45 = landingpad { ptr, i32 }
          cleanup
  invoke void @__cxa_end_catch()
          to label %49 unwind label %50

46:                                               ; preds = %23
  %47 = landingpad { ptr, i32 }
          cleanup
  invoke void @__cxa_end_catch()
          to label %49 unwind label %50

48:                                               ; preds = %_ZN4pkpy2VM12is_user_typeINS_5VoidPEEEbPNS_8PyObjectE.exit, %2, %43, %26
  %.0 = phi i1 [ false, %26 ], [ false, %43 ], [ false, %2 ], [ %16, %_ZN4pkpy2VM12is_user_typeINS_5VoidPEEEbPNS_8PyObjectE.exit ]
  ret i1 %.0

49:                                               ; preds = %46, %44, %27
  %.merged = phi { ptr, i32 } [ %47, %46 ], [ %45, %44 ], [ %18, %27 ]
  resume { ptr, i32 } %.merged

50:                                               ; preds = %46, %44
  %51 = landingpad { ptr, i32 }
          catch ptr null
  %52 = extractvalue { ptr, i32 } %51, 0
  call void @__clang_call_terminate(ptr %52) #29
  unreachable
}